; Function Attrs: nounwind uwtable
define internal fastcc void @_jumbleAlterPolicyStmt(ptr noundef %0, ptr noundef nonnull readonly captures(none) %1) unnamed_addr #0 {
  %3 = getelementptr inbounds nuw i8, ptr %1, i64 8
  %4 = load ptr, ptr %3, align 8
  %.not = icmp eq ptr %4, null
  br i1 %.not, label %21, label %5

5:                                                ; preds = %2
  %6 = tail call i64 @strlen(ptr noundef nonnull dereferenceable(1) %4) #8
  %7 = add i64 %6, 1
  %8 = load ptr, ptr %0, align 8
  %9 = getelementptr inbounds nuw i8, ptr %0, i64 8
  %10 = load i64, ptr %9, align 8
  %.not23.i = icmp eq i64 %7, 0
  br i1 %.not23.i, label %AppendJumble.exit, label %.lr.ph.i

.lr.ph.i:                                         ; preds = %5, %14
  %.026.i = phi ptr [ %19, %14 ], [ %4, %5 ]
  %.02125.i = phi i64 [ %20, %14 ], [ %7, %5 ]
  %.02224.i = phi i64 [ %18, %14 ], [ %10, %5 ]
  %11 = icmp ugt i64 %.02224.i, 1023
  br i1 %11, label %12, label %14

12:                                               ; preds = %.lr.ph.i
  %13 = tail call i64 @hash_bytes_extended(ptr noundef %8, i32 noundef 1024, i64 noundef 0) #9
  store i64 %13, ptr %8, align 1
  br label %14

14:                                               ; preds = %12, %.lr.ph.i
  %.1.i = phi i64 [ 8, %12 ], [ %.02224.i, %.lr.ph.i ]
  %15 = sub nuw nsw i64 1024, %.1.i
  %16 = tail call i64 @llvm.umin.i64(i64 %.02125.i, i64 %15)
  %17 = getelementptr inbounds nuw i8, ptr %8, i64 %.1.i
  tail call void @llvm.memcpy.p0.p0.i64(ptr noundef nonnull align 1 dereferenceable(1) %17, ptr noundef nonnull align 1 dereferenceable(1) %.026.i, i64 %16, i1 false)
  %18 = add nuw nsw i64 %16, %.1.i
  %19 = getelementptr inbounds nuw i8, ptr %.026.i, i64 %16
  %20 = sub i64 %.02125.i, %16
  %.not.i = icmp eq i64 %20, 0
  br i1 %.not.i, label %AppendJumble.exit, label %.lr.ph.i, !llvm.loop !7

AppendJumble.exit:                                ; preds = %14, %5
  %.022.lcssa.i = phi i64 [ %10, %5 ], [ %18, %14 ]
  store i64 %.022.lcssa.i, ptr %9, align 8
  br label %21

21:                                               ; preds = %AppendJumble.exit, %2
  %22 = getelementptr inbounds nuw i8, ptr %1, i64 16
  %23 = load ptr, ptr %22, align 8
  tail call fastcc void @_jumbleNode(ptr noundef %0, ptr noundef %23)
  %24 = getelementptr inbounds nuw i8, ptr %1, i64 24
  %25 = load ptr, ptr %24, align 8
  tail call fastcc void @_jumbleNode(ptr noundef %0, ptr noundef %25)
  %26 = getelementptr inbounds nuw i8, ptr %1, i64 32
  %27 = load ptr, ptr %26, align 8
  tail call fastcc void @_jumbleNode(ptr noundef %0, ptr noundef %27)
  %28 = getelementptr inbounds nuw i8, ptr %1, i64 40
  %29 = load ptr, ptr %28, align 8
  tail call fastcc void @_jumbleNode(ptr noundef %0, ptr noundef %29)
  ret void
}